target datalayout = "e-m:e-p270:32:32-p271:32:32-p272:64:64-i64:64-i128:128-f80:128-n8:16:32:64-S128"
target triple = "x86_64-pc-linux-gnu"

@_ZN13MarchingCubes10vertexListE = global [12 x [3 x double]] zeroinitializer, align 16

; Function Attrs: mustprogress nounwind uwtable
define noundef double @_ZN13MarchingCubes11InterpolateEdd(double noundef %0, double noundef %1) #1 align 2 {
  %3 = alloca double, align 8
  %4 = alloca double, align 8
  store double %0, ptr %3, align 8
  store double %1, ptr %4, align 8
  %5 = load double, ptr %3, align 8
  %6 = load double, ptr %3, align 8
  %7 = load double, ptr %4, align 8
  %8 = fsub double %6, %7
  %9 = fdiv double %5, %8
  ret double %9
}

; Function Attrs: mustprogress nounwind uwtable
define noundef i32 @_ZN4Cube11CornerIndexEiii(i32 noundef %0, i32 noundef %1, i32 noundef %2) #1 align 2 {
  %4 = alloca i32, align 4
  %5 = alloca i32, align 4
  %6 = alloca i32, align 4
  store i32 %0, ptr %4, align 4
  store i32 %1, ptr %5, align 4
  store i32 %2, ptr %6, align 4
  %7 = load i32, ptr %6, align 4
  %8 = shl i32 %7, 2
  %9 = load i32, ptr %5, align 4
  %10 = shl i32 %9, 1
  %11 = or i32 %8, %10
  %12 = load i32, ptr %4, align 4
  %13 = or i32 %11, %12
  ret i32 %13
}

; Function Attrs: mustprogress nounwind uwtable
define void @_ZN4Cube15FactorEdgeIndexEiRiS0_S0_(i32 noundef %0, ptr noundef nonnull align 4 dereferenceable(4) %1, ptr noundef nonnull align 4 dereferenceable(4) %2, ptr noundef nonnull align 4 dereferenceable(4) %3) #1 align 2 {
  %5 = alloca i32, align 4
  %6 = alloca ptr, align 8
  %7 = alloca ptr, align 8
  %8 = alloca ptr, align 8
  store i32 %0, ptr %5, align 4
  store ptr %1, ptr %6, align 8
  store ptr %2, ptr %7, align 8
  store ptr %3, ptr %8, align 8
  %9 = load i32, ptr %5, align 4
  %10 = ashr i32 %9, 2
  %11 = load ptr, ptr %6, align 8
  store i32 %10, ptr %11, align 4
  %12 = load i32, ptr %5, align 4
  %13 = and i32 %12, 1
  %14 = load ptr, ptr %7, align 8
  store i32 %13, ptr %14, align 4
  %15 = load i32, ptr %5, align 4
  %16 = and i32 %15, 2
  %17 = ashr i32 %16, 1
  %18 = load ptr, ptr %8, align 8
  store i32 %17, ptr %18, align 4
  ret void
}

; Function Attrs: mustprogress uwtable
define void @_ZN13MarchingCubes9SetVertexEiPKdd(i32 noundef %0, ptr noundef %1, double noundef %2) #0 align 2 {
  %4 = alloca i32, align 4
  %5 = alloca ptr, align 8
  %6 = alloca double, align 8
  %7 = alloca double, align 8
  %8 = alloca i32, align 4
  %9 = alloca i32, align 4
  %10 = alloca i32, align 4
  store i32 %0, ptr %4, align 4
  store ptr %1, ptr %5, align 8
  store double %2, ptr %6, align 8
  %11 = load i32, ptr %4, align 4
  call void @_ZN4Cube15FactorEdgeIndexEiRiS0_S0_(i32 noundef %11, ptr noundef nonnull align 4 dereferenceable(4) %8, ptr noundef nonnull align 4 dereferenceable(4) %9, ptr noundef nonnull align 4 dereferenceable(4) %10)
  %12 = load i32, ptr %8, align 4
  switch i32 %12, label %124 [
    i32 0, label %13
    i32 1, label %50
    i32 2, label %87
  ]

13:                                               ; preds = %3
  %14 = load ptr, ptr %5, align 8
  %15 = load i32, ptr %9, align 4
  %16 = load i32, ptr %10, align 4
  %17 = call noundef i32 @_ZN4Cube11CornerIndexEiii(i32 noundef 0, i32 noundef %15, i32 noundef %16)
  %18 = sext i32 %17 to i64
  %19 = getelementptr inbounds double, ptr %14, i64 %18
  %20 = load double, ptr %19, align 8
  %21 = load double, ptr %6, align 8
  %22 = fsub double %20, %21
  %23 = load ptr, ptr %5, align 8
  %24 = load i32, ptr %9, align 4
  %25 = load i32, ptr %10, align 4
  %26 = call noundef i32 @_ZN4Cube11CornerIndexEiii(i32 noundef 1, i32 noundef %24, i32 noundef %25)
  %27 = sext i32 %26 to i64
  %28 = getelementptr inbounds double, ptr %23, i64 %27
  %29 = load double, ptr %28, align 8
  %30 = load double, ptr %6, align 8
  %31 = fsub double %29, %30
  %32 = call noundef double @_ZN13MarchingCubes11InterpolateEdd(double noundef %22, double noundef %31)
  store double %32, ptr %7, align 8
  %33 = load double, ptr %7, align 8
  %34 = load i32, ptr %4, align 4
  %35 = sext i32 %34 to i64
  %36 = getelementptr inbounds [12 x [3 x double]], ptr @_ZN13MarchingCubes10vertexListE, i64 0, i64 %35
  %37 = getelementptr inbounds [3 x double], ptr %36, i64 0, i64 0
  store double %33, ptr %37, align 8
  %38 = load i32, ptr %9, align 4
  %39 = sitofp i32 %38 to double
  %40 = load i32, ptr %4, align 4
  %41 = sext i32 %40 to i64
  %42 = getelementptr inbounds [12 x [3 x double]], ptr @_ZN13MarchingCubes10vertexListE, i64 0, i64 %41
  %43 = getelementptr inbounds [3 x double], ptr %42, i64 0, i64 1
  store double %39, ptr %43, align 8
  %44 = load i32, ptr %10, align 4
  %45 = sitofp i32 %44 to double
  %46 = load i32, ptr %4, align 4
  %47 = sext i32 %46 to i64
  %48 = getelementptr inbounds [12 x [3 x double]], ptr @_ZN13MarchingCubes10vertexListE, i64 0, i64 %47
  %49 = getelementptr inbounds [3 x double], ptr %48, i64 0, i64 2
  store double %45, ptr %49, align 8
  br label %124

50:                                               ; preds = %3
  %51 = load ptr, ptr %5, align 8
  %52 = load i32, ptr %9, align 4
  %53 = load i32, ptr %10, align 4
  %54 = call noundef i32 @_ZN4Cube11CornerIndexEiii(i32 noundef %52, i32 noundef 0, i32 noundef %53)
  %55 = sext i32 %54 to i64
  %56 = getelementptr inbounds double, ptr %51, i64 %55
  %57 = load double, ptr %56, align 8
  %58 = load double, ptr %6, align 8
  %59 = fsub double %57, %58
  %60 = load ptr, ptr %5, align 8
  %61 = load i32, ptr %9, align 4
  %62 = load i32, ptr %10, align 4
  %63 = call noundef i32 @_ZN4Cube11CornerIndexEiii(i32 noundef %61, i32 noundef 1, i32 noundef %62)
  %64 = sext i32 %63 to i64
  %65 = getelementptr inbounds double, ptr %60, i64 %64
  %66 = load double, ptr %65, align 8
  %67 = load double, ptr %6, align 8
  %68 = fsub double %66, %67
  %69 = call noundef double @_ZN13MarchingCubes11InterpolateEdd(double noundef %59, double noundef %68)
  store double %69, ptr %7, align 8
  %70 = load i32, ptr %9, align 4
  %71 = sitofp i32 %70 to double
  %72 = load i32, ptr %4, align 4
  %73 = sext i32 %72 to i64
  %74 = getelementptr inbounds [12 x [3 x double]], ptr @_ZN13MarchingCubes10vertexListE, i64 0, i64 %73
  %75 = getelementptr inbounds [3 x double], ptr %74, i64 0, i64 0
  store double %71, ptr %75, align 8
  %76 = load double, ptr %7, align 8
  %77 = load i32, ptr %4, align 4
  %78 = sext i32 %77 to i64
  %79 = getelementptr inbounds [12 x [3 x double]], ptr @_ZN13MarchingCubes10vertexListE, i64 0, i64 %78
  %80 = getelementptr inbounds [3 x double], ptr %79, i64 0, i64 1
  store double %76, ptr %80, align 8
  %81 = load i32, ptr %10, align 4
  %82 = sitofp i32 %81 to double
  %83 = load i32, ptr %4, align 4
  %84 = sext i32 %83 to i64
  %85 = getelementptr inbounds [12 x [3 x double]], ptr @_ZN13MarchingCubes10vertexListE, i64 0, i64 %84
  %86 = getelementptr inbounds [3 x double], ptr %85, i64 0, i64 2
  store double %82, ptr %86, align 8
  br label %124

87:                                               ; preds = %3
  %88 = load ptr, ptr %5, align 8
  %89 = load i32, ptr %9, align 4
  %90 = load i32, ptr %10, align 4
  %91 = call noundef i32 @_ZN4Cube11CornerIndexEiii(i32 noundef %89, i32 noundef %90, i32 noundef 0)
  %92 = sext i32 %91 to i64
  %93 = getelementptr inbounds double, ptr %88, i64 %92
  %94 = load double, ptr %93, align 8
  %95 = load double, ptr %6, align 8
  %96 = fsub double %94, %95
  %97 = load ptr, ptr %5, align 8
  %98 = load i32, ptr %9, align 4
  %99 = load i32, ptr %10, align 4
  %100 = call noundef i32 @_ZN4Cube11CornerIndexEiii(i32 noundef %98, i32 noundef %99, i32 noundef 1)
  %101 = sext i32 %100 to i64
  %102 = getelementptr inbounds double, ptr %97, i64 %101
  %103 = load double, ptr %102, align 8
  %104 = load double, ptr %6, align 8
  %105 = fsub double %103, %104
  %106 = call noundef double @_ZN13MarchingCubes11InterpolateEdd(double noundef %96, double noundef %105)
  store double %106, ptr %7, align 8
  %107 = load i32, ptr %9, align 4
  %108 = sitofp i32 %107 to double
  %109 = load i32, ptr %4, align 4
  %110 = sext i32 %109 to i64
  %111 = getelementptr inbounds [12 x [3 x double]], ptr @_ZN13MarchingCubes10vertexListE, i64 0, i64 %110
  %112 = getelementptr inbounds [3 x double], ptr %111, i64 0, i64 0
  store double %108, ptr %112, align 8
  %113 = load i32, ptr %10, align 4
  %114 = sitofp i32 %113 to double
  %115 = load i32, ptr %4, align 4
  %116 = sext i32 %115 to i64
  %117 = getelementptr inbounds [12 x [3 x double]], ptr @_ZN13MarchingCubes10vertexListE, i64 0, i64 %116
  %118 = getelementptr inbounds [3 x double], ptr %117, i64 0, i64 1
  store double %114, ptr %118, align 8
  %119 = load double, ptr %7, align 8
  %120 = load i32, ptr %4, align 4
  %121 = sext i32 %120 to i64
  %122 = getelementptr inbounds [12 x [3 x double]], ptr @_ZN13MarchingCubes10vertexListE, i64 0, i64 %121
  %123 = getelementptr inbounds [3 x double], ptr %122, i64 0, i64 2
  store double %119, ptr %123, align 8
  br label %124

124:                                              ; preds = %87, %50, %13, %3
  ret void
}