; Function Attrs: mustprogress nofree norecurse nosync nounwind willreturn memory(write, argmem: read, inaccessiblemem: none) uwtable
define void @_ZN13MarchingCubes9SetVertexEiPKdd(i32 noundef %0, ptr noundef readonly captures(none) %1, double noundef %2) local_unnamed_addr #4 align 2 {
  %4 = ashr i32 %0, 2
  %5 = and i32 %0, 1
  %6 = lshr i32 %0, 1
  %7 = and i32 %6, 1
  switch i32 %4, label %65 [
    i32 0, label %8
    i32 1, label %28
    i32 2, label %47
  ]

8:                                                ; preds = %3
  %9 = shl nuw nsw i32 %7, 2
  %10 = shl nuw nsw i32 %5, 1
  %11 = or disjoint i32 %9, %10
  %12 = zext nneg i32 %11 to i64
  %13 = getelementptr inbounds nuw double, ptr %1, i64 %12
  %14 = load double, ptr %13, align 8
  %15 = fsub double %14, %2
  %16 = or disjoint i32 %11, 1
  %17 = zext nneg i32 %16 to i64
  %18 = getelementptr inbounds nuw double, ptr %1, i64 %17
  %19 = load double, ptr %18, align 8
  %20 = fsub double %19, %2
  %21 = fsub double %15, %20
  %22 = fdiv double %15, %21
  %23 = sext i32 %0 to i64
  %24 = getelementptr inbounds [12 x [3 x double]], ptr @_ZN13MarchingCubes10vertexListE, i64 0, i64 %23
  store double %22, ptr %24, align 8
  %25 = uitofp nneg i32 %5 to double
  %26 = getelementptr inbounds nuw i8, ptr %24, i64 8
  store double %25, ptr %26, align 8
  %27 = uitofp nneg i32 %7 to double
  br label %.sink.split

28:                                               ; preds = %3
  %29 = shl nuw nsw i32 %7, 2
  %30 = or disjoint i32 %29, %5
  %31 = zext nneg i32 %30 to i64
  %32 = getelementptr inbounds nuw double, ptr %1, i64 %31
  %33 = load double, ptr %32, align 8
  %34 = fsub double %33, %2
  %35 = or disjoint i32 %30, 2
  %36 = zext nneg i32 %35 to i64
  %37 = getelementptr inbounds nuw double, ptr %1, i64 %36
  %38 = load double, ptr %37, align 8
  %39 = fsub double %38, %2
  %40 = fsub double %34, %39
  %41 = fdiv double %34, %40
  %42 = uitofp nneg i32 %5 to double
  %43 = sext i32 %0 to i64
  %44 = getelementptr inbounds [12 x [3 x double]], ptr @_ZN13MarchingCubes10vertexListE, i64 0, i64 %43
  store double %42, ptr %44, align 8
  %45 = getelementptr inbounds nuw i8, ptr %44, i64 8
  store double %41, ptr %45, align 8
  %46 = uitofp nneg i32 %7 to double
  br label %.sink.split

47:                                               ; preds = %3
  %urem = and i32 %0, 3
  %48 = zext nneg i32 %urem to i64
  %49 = getelementptr inbounds nuw double, ptr %1, i64 %48
  %50 = load double, ptr %49, align 8
  %51 = fsub double %50, %2
  %52 = or disjoint i32 %urem, 4
  %53 = zext nneg i32 %52 to i64
  %54 = getelementptr inbounds nuw double, ptr %1, i64 %53
  %55 = load double, ptr %54, align 8
  %56 = fsub double %55, %2
  %57 = fsub double %51, %56
  %58 = fdiv double %51, %57
  %59 = uitofp nneg i32 %5 to double
  %60 = sext i32 %0 to i64
  %61 = getelementptr inbounds [12 x [3 x double]], ptr @_ZN13MarchingCubes10vertexListE, i64 0, i64 %60
  store double %59, ptr %61, align 8
  %62 = uitofp nneg i32 %7 to double
  %63 = getelementptr inbounds nuw i8, ptr %61, i64 8
  store double %62, ptr %63, align 8
  br label %.sink.split

.sink.split:                                      ; preds = %8, %28, %47
  %.sink43 = phi ptr [ %61, %47 ], [ %44, %28 ], [ %24, %8 ]
  %.sink = phi double [ %58, %47 ], [ %46, %28 ], [ %27, %8 ]
  %64 = getelementptr inbounds nuw i8, ptr %.sink43, i64 16
  store double %.sink, ptr %64, align 8
  br label %65

65:                                               ; preds = %.sink.split, %3
  ret void
}